target datalayout = "e-m:e-p270:32:32-p271:32:32-p272:64:64-i64:64-i128:128-f80:128-n8:16:32:64-S128"
target triple = "x86_64-pc-linux-gnu"

%struct.ma_dr_flac_cuesheet_track_iterator = type { i32, ptr }

; Function Attrs: nounwind uwtable
define void @ma_dr_flac_init_cuesheet_track_iterator(ptr noundef %0, i32 noundef %1, ptr noundef %2) #0 {
  %4 = alloca ptr, align 8
  %5 = alloca i32, align 4
  %6 = alloca ptr, align 8
  store ptr %0, ptr %4, align 8, !tbaa !25
  store i32 %1, ptr %5, align 4, !tbaa !8
  store ptr %2, ptr %6, align 8, !tbaa !25
  %7 = load ptr, ptr %4, align 8, !tbaa !25
  %8 = icmp eq ptr %7, null
  br i1 %8, label %9, label %10

9:                                                ; preds = %3
  br label %17

10:                                               ; preds = %3
  %11 = load i32, ptr %5, align 4, !tbaa !8
  %12 = load ptr, ptr %4, align 8, !tbaa !25
  %13 = getelementptr inbounds nuw %struct.ma_dr_flac_cuesheet_track_iterator, ptr %12, i32 0, i32 0
  store i32 %11, ptr %13, align 8, !tbaa !117
  %14 = load ptr, ptr %6, align 8, !tbaa !25
  %15 = load ptr, ptr %4, align 8, !tbaa !25
  %16 = getelementptr inbounds nuw %struct.ma_dr_flac_cuesheet_track_iterator, ptr %15, i32 0, i32 1
  store ptr %14, ptr %16, align 8, !tbaa !115
  br label %17

17:                                               ; preds = %10, %9
  ret void
}