; Function Attrs: mustprogress nofree norecurse nosync nounwind willreturn memory(argmem: write) uwtable
define void @ma_dr_flac_init_cuesheet_track_iterator(ptr noundef writeonly captures(address_is_null) %0, i32 noundef %1, ptr noundef %2) local_unnamed_addr #0 {
  %4 = icmp eq ptr %0, null
  br i1 %4, label %7, label %5

5:                                                ; preds = %3
  store i32 %1, ptr %0, align 8, !tbaa !95
  %6 = getelementptr inbounds nuw i8, ptr %0, i64 8
  store ptr %2, ptr %6, align 8, !tbaa !91
  br label %7

7:                                                ; preds = %3, %5
  ret void
}